; Function Attrs: nounwind uwtable
define dso_local i64 @cgroup_g_get_acct_units() local_unnamed_addr #0 {
  %1 = load i32, ptr @plugin_inited, align 4
  %2 = icmp eq i32 %1, 1
  br i1 %2, label %6, label %3

3:                                                ; preds = %0
  %4 = load ptr, ptr getelementptr inbounds nuw (i8, ptr @ops, i64 144), align 8
  %5 = tail call i64 %4() #12
  br label %6

6:                                                ; preds = %0, %3
  %.0 = phi i64 [ %5, %3 ], [ 1000000, %0 ]
  ret i64 %.0
}